target datalayout = "e-m:e-p270:32:32-p271:32:32-p272:64:64-i64:64-i128:128-f80:128-n8:16:32:64-S128"
target triple = "x86_64-pc-linux-gnu"

%struct.pg_enc2name = type { ptr, i32 }
%struct.pg_wchar_tbl = type { ptr, ptr, ptr, ptr, ptr, ptr, i32 }

@DatabaseEncoding = internal global ptr @pg_enc2name_tbl, align 8
@pg_wchar_table = external constant [0 x %struct.pg_wchar_tbl], align 8

; Function Attrs: nounwind uwtable
define dso_local i32 @GetDatabaseEncoding() #1 {
  %1 = load ptr, ptr @DatabaseEncoding, align 8
  %2 = getelementptr inbounds nuw %struct.pg_enc2name, ptr %1, i32 0, i32 1
  %3 = load i32, ptr %2, align 8
  ret i32 %3
}

; Function Attrs: nounwind uwtable
define dso_local i32 @pg_mblen(ptr noundef %0) #1 {
  %2 = alloca ptr, align 8
  store ptr %0, ptr %2, align 8
  %3 = load ptr, ptr @DatabaseEncoding, align 8
  %4 = getelementptr inbounds nuw %struct.pg_enc2name, ptr %3, i32 0, i32 1
  %5 = load i32, ptr %4, align 8
  %6 = zext i32 %5 to i64
  %7 = getelementptr inbounds nuw [0 x %struct.pg_wchar_tbl], ptr @pg_wchar_table, i64 0, i64 %6
  %8 = getelementptr inbounds nuw %struct.pg_wchar_tbl, ptr %7, i32 0, i32 2
  %9 = load ptr, ptr %8, align 8
  %10 = load ptr, ptr %2, align 8
  %11 = call i32 %9(ptr noundef %10)
  ret i32 %11
}

; Function Attrs: nounwind uwtable
define internal i32 @cliplen(ptr noundef %0, i32 noundef %1, i32 noundef %2) #1 {
  %4 = alloca ptr, align 8
  %5 = alloca i32, align 4
  %6 = alloca i32, align 4
  %7 = alloca i32, align 4
  store ptr %0, ptr %4, align 8
  store i32 %1, ptr %5, align 4
  store i32 %2, ptr %6, align 4
  call void @llvm.lifetime.start.p0(i64 4, ptr %7) #9
  store i32 0, ptr %7, align 4
  %8 = load i32, ptr %5, align 4
  %9 = load i32, ptr %6, align 4
  %10 = icmp slt i32 %8, %9
  br i1 %10, label %11, label %13

11:                                               ; preds = %3
  %12 = load i32, ptr %5, align 4
  br label %15

13:                                               ; preds = %3
  %14 = load i32, ptr %6, align 4
  br label %15

15:                                               ; preds = %13, %11
  %16 = phi i32 [ %12, %11 ], [ %14, %13 ]
  store i32 %16, ptr %5, align 4
  br label %17

17:                                               ; preds = %31, %15
  %18 = load i32, ptr %7, align 4
  %19 = load i32, ptr %5, align 4
  %20 = icmp slt i32 %18, %19
  br i1 %20, label %21, label %29

21:                                               ; preds = %17
  %22 = load ptr, ptr %4, align 8
  %23 = load i32, ptr %7, align 4
  %24 = sext i32 %23 to i64
  %25 = getelementptr inbounds i8, ptr %22, i64 %24
  %26 = load i8, ptr %25, align 1
  %27 = sext i8 %26 to i32
  %28 = icmp ne i32 %27, 0
  br label %29

29:                                               ; preds = %21, %17
  %30 = phi i1 [ false, %17 ], [ %28, %21 ]
  br i1 %30, label %31, label %34

31:                                               ; preds = %29
  %32 = load i32, ptr %7, align 4
  %33 = add i32 %32, 1
  store i32 %33, ptr %7, align 4
  br label %17, !llvm.loop !14

34:                                               ; preds = %29
  %35 = load i32, ptr %7, align 4
  call void @llvm.lifetime.end.p0(i64 4, ptr %7) #9
  ret i32 %35
}

; Function Attrs: nounwind uwtable
define dso_local i32 @pg_database_encoding_max_length() #1 {
  %1 = call i32 @GetDatabaseEncoding()
  %2 = sext i32 %1 to i64
  %3 = getelementptr inbounds [0 x %struct.pg_wchar_tbl], ptr @pg_wchar_table, i64 0, i64 %2
  %4 = getelementptr inbounds nuw %struct.pg_wchar_tbl, ptr %3, i32 0, i32 6
  %5 = load i32, ptr %4, align 8
  ret i32 %5
}

; Function Attrs: nounwind uwtable
define dso_local i32 @pg_mbcharcliplen(ptr noundef %0, i32 noundef %1, i32 noundef %2) #1 {
  %4 = alloca i32, align 4
  %5 = alloca ptr, align 8
  %6 = alloca i32, align 4
  %7 = alloca i32, align 4
  %8 = alloca i32, align 4
  %9 = alloca i32, align 4
  %10 = alloca i32, align 4
  %11 = alloca i32, align 4
  store ptr %0, ptr %5, align 8
  store i32 %1, ptr %6, align 4
  store i32 %2, ptr %7, align 4
  call void @llvm.lifetime.start.p0(i64 4, ptr %8) #9
  store i32 0, ptr %8, align 4
  call void @llvm.lifetime.start.p0(i64 4, ptr %9) #9
  store i32 0, ptr %9, align 4
  call void @llvm.lifetime.start.p0(i64 4, ptr %10) #9
  %12 = call i32 @pg_database_encoding_max_length()
  %13 = icmp eq i32 %12, 1
  br i1 %13, label %14, label %19

14:                                               ; preds = %3
  %15 = load ptr, ptr %5, align 8
  %16 = load i32, ptr %6, align 4
  %17 = load i32, ptr %7, align 4
  %18 = call i32 @cliplen(ptr noundef %15, i32 noundef %16, i32 noundef %17)
  store i32 %18, ptr %4, align 4
  store i32 1, ptr %11, align 4
  br label %52

19:                                               ; preds = %3
  br label %20

20:                                               ; preds = %39, %19
  %21 = load i32, ptr %6, align 4
  %22 = icmp sgt i32 %21, 0
  br i1 %22, label %23, label %28

23:                                               ; preds = %20
  %24 = load ptr, ptr %5, align 8
  %25 = load i8, ptr %24, align 1
  %26 = sext i8 %25 to i32
  %27 = icmp ne i32 %26, 0
  br label %28

28:                                               ; preds = %23, %20
  %29 = phi i1 [ false, %20 ], [ %27, %23 ]
  br i1 %29, label %30, label %50

30:                                               ; preds = %28
  %31 = load ptr, ptr %5, align 8
  %32 = call i32 @pg_mblen(ptr noundef %31)
  store i32 %32, ptr %10, align 4
  %33 = load i32, ptr %9, align 4
  %34 = add i32 %33, 1
  store i32 %34, ptr %9, align 4
  %35 = load i32, ptr %9, align 4
  %36 = load i32, ptr %7, align 4
  %37 = icmp sgt i32 %35, %36
  br i1 %37, label %38, label %39

38:                                               ; preds = %30
  br label %50

39:                                               ; preds = %30
  %40 = load i32, ptr %10, align 4
  %41 = load i32, ptr %8, align 4
  %42 = add i32 %41, %40
  store i32 %42, ptr %8, align 4
  %43 = load i32, ptr %10, align 4
  %44 = load i32, ptr %6, align 4
  %45 = sub i32 %44, %43
  store i32 %45, ptr %6, align 4
  %46 = load i32, ptr %10, align 4
  %47 = load ptr, ptr %5, align 8
  %48 = sext i32 %46 to i64
  %49 = getelementptr inbounds i8, ptr %47, i64 %48
  store ptr %49, ptr %5, align 8
  br label %20, !llvm.loop !15

50:                                               ; preds = %38, %28
  %51 = load i32, ptr %8, align 4
  store i32 %51, ptr %4, align 4
  store i32 1, ptr %11, align 4
  br label %52

52:                                               ; preds = %50, %14
  call void @llvm.lifetime.end.p0(i64 4, ptr %10) #9
  call void @llvm.lifetime.end.p0(i64 4, ptr %9) #9
  call void @llvm.lifetime.end.p0(i64 4, ptr %8) #9
  %53 = load i32, ptr %4, align 4
  ret i32 %53
}