; Function Attrs: nounwind uwtable
define dso_local i32 @pg_mbcharcliplen(ptr noundef %0, i32 noundef %1, i32 noundef %2) local_unnamed_addr #0 {
  %4 = load ptr, ptr @DatabaseEncoding, align 8
  %5 = getelementptr inbounds nuw i8, ptr %4, i64 8
  %6 = load i32, ptr %5, align 8
  %7 = sext i32 %6 to i64
  %8 = getelementptr inbounds [0 x %struct.pg_wchar_tbl], ptr @pg_wchar_table, i64 0, i64 %7, i32 6
  %9 = load i32, ptr %8, align 8
  %10 = icmp eq i32 %9, 1
  br i1 %10, label %12, label %.preheader

.preheader:                                       ; preds = %3
  %11 = icmp sgt i32 %1, 0
  br i1 %11, label %.lr.ph, label %.critedge

12:                                               ; preds = %3
  %13 = tail call i32 @llvm.smin.i32(i32 %1, i32 %2)
  %14 = icmp sgt i32 %13, 0
  br i1 %14, label %.lr.ph.preheader.i, label %.critedge

.lr.ph.preheader.i:                               ; preds = %12
  %wide.trip.count.i = zext nneg i32 %13 to i64
  br label %.lr.ph.i

.lr.ph.i:                                         ; preds = %17, %.lr.ph.preheader.i
  %indvars.iv.i = phi i64 [ 0, %.lr.ph.preheader.i ], [ %indvars.iv.next.i, %17 ]
  %15 = getelementptr inbounds nuw i8, ptr %0, i64 %indvars.iv.i
  %16 = load i8, ptr %15, align 1
  %.not.i = icmp eq i8 %16, 0
  br i1 %.not.i, label %.critedge.loopexit.split.loop.exit13.i, label %17

17:                                               ; preds = %.lr.ph.i
  %indvars.iv.next.i = add nuw nsw i64 %indvars.iv.i, 1
  %exitcond.not.i = icmp eq i64 %indvars.iv.next.i, %wide.trip.count.i
  br i1 %exitcond.not.i, label %.critedge, label %.lr.ph.i, !llvm.loop !10

.critedge.loopexit.split.loop.exit13.i:           ; preds = %.lr.ph.i
  %18 = trunc nuw nsw i64 %indvars.iv.i to i32
  br label %.critedge

.lr.ph:                                           ; preds = %.preheader, %30
  %.01626 = phi i32 [ %28, %30 ], [ 0, %.preheader ]
  %.01725 = phi i32 [ %31, %30 ], [ 0, %.preheader ]
  %.01824 = phi ptr [ %34, %30 ], [ %0, %.preheader ]
  %.01923 = phi i32 [ %32, %30 ], [ %1, %.preheader ]
  %19 = load i8, ptr %.01824, align 1
  %.not = icmp eq i8 %19, 0
  br i1 %.not, label %.critedge, label %20

20:                                               ; preds = %.lr.ph
  %21 = load ptr, ptr @DatabaseEncoding, align 8
  %22 = getelementptr inbounds nuw i8, ptr %21, i64 8
  %23 = load i32, ptr %22, align 8
  %24 = zext i32 %23 to i64
  %25 = getelementptr inbounds nuw [0 x %struct.pg_wchar_tbl], ptr @pg_wchar_table, i64 0, i64 %24, i32 2
  %26 = load ptr, ptr %25, align 8
  %27 = tail call i32 %26(ptr noundef nonnull %.01824) #13
  %28 = add i32 %.01626, 1
  %29 = icmp sgt i32 %28, %2
  br i1 %29, label %.critedge, label %30

30:                                               ; preds = %20
  %31 = add i32 %27, %.01725
  %32 = sub i32 %.01923, %27
  %33 = sext i32 %27 to i64
  %34 = getelementptr inbounds i8, ptr %.01824, i64 %33
  %35 = icmp sgt i32 %32, 0
  br i1 %35, label %.lr.ph, label %.critedge, !llvm.loop !12

.critedge:                                        ; preds = %30, %20, %.lr.ph, %17, %.preheader, %.critedge.loopexit.split.loop.exit13.i, %12
  %.0 = phi i32 [ 0, %12 ], [ %18, %.critedge.loopexit.split.loop.exit13.i ], [ 0, %.preheader ], [ %13, %17 ], [ %31, %30 ], [ %.01725, %20 ], [ %.01725, %.lr.ph ]
  ret i32 %.0
}